; Function Attrs: mustprogress nofree nounwind uwtable
define void @_Z21set_dd_dlb_max_cutoffP9t_commrecf(ptr noundef readonly captures(none) %0, float noundef %1) local_unnamed_addr #0 {
  %3 = getelementptr inbounds nuw i8, ptr %0, i64 112
  %4 = load ptr, ptr %3, align 8, !tbaa !4
  %5 = getelementptr inbounds nuw i8, ptr %4, i64 912
  %6 = load ptr, ptr %5, align 8, !tbaa !27
  %7 = getelementptr inbounds nuw i8, ptr %6, i64 609
  store i8 1, ptr %7, align 1, !tbaa !29
  %8 = getelementptr inbounds nuw i8, ptr %6, i64 612
  store float %1, ptr %8, align 4, !tbaa !124
  %9 = load ptr, ptr @debug, align 8, !tbaa !125
  %.not = icmp eq ptr %9, null
  br i1 %.not, label %13, label %10

10:                                               ; preds = %2
  %11 = fpext float %1 to double
  %12 = tail call i32 (ptr, ptr, ...) @fprintf(ptr noundef nonnull %9, ptr noundef nonnull @.str, double noundef %11) #20
  br label %13

13:                                               ; preds = %10, %2
  ret void
}